; ModuleID = 'source-C-CXX/10/977.cpp'
source_filename = "source-C-CXX/10/977.cpp"
target datalayout = "e-m:e-p270:32:32-p271:32:32-p272:64:64-i64:64-f80:128-n8:16:32:64-S128"
target triple = "x86_64-pc-linux-gnu"

%"class.std::ios_base::Init" = type { i8 }
%"class.std::basic_istream" = type { i32 (...)**, i64, %"class.std::basic_ios" }
%"class.std::basic_ios" = type { %"class.std::ios_base", %"class.std::basic_ostream"*, i8, i8, %"class.std::basic_streambuf"*, %"class.std::ctype"*, %"class.std::num_put"*, %"class.std::num_get"* }
%"class.std::ios_base" = type { i32 (...)**, i64, i64, i32, i32, i32, %"struct.std::ios_base::_Callback_list"*, %"struct.std::ios_base::_Words", [8 x %"struct.std::ios_base::_Words"], i32, %"struct.std::ios_base::_Words"*, %"class.std::locale" }
%"struct.std::ios_base::_Callback_list" = type { %"struct.std::ios_base::_Callback_list"*, void (i32, %"class.std::ios_base"*, i32)*, i32, i32 }
%"struct.std::ios_base::_Words" = type { i8*, i64 }
%"class.std::locale" = type { %"class.std::locale::_Impl"* }
%"class.std::locale::_Impl" = type { i32, %"class.std::locale::facet"**, i64, %"class.std::locale::facet"**, i8** }
%"class.std::locale::facet" = type <{ i32 (...)**, i32, [4 x i8] }>
%"class.std::basic_ostream" = type { i32 (...)**, %"class.std::basic_ios" }
%"class.std::basic_streambuf" = type { i32 (...)**, i8*, i8*, i8*, i8*, i8*, i8*, %"class.std::locale" }
%"class.std::ctype" = type <{ %"class.std::locale::facet.base", [4 x i8], %struct.__locale_struct*, i8, [7 x i8], i32*, i32*, i16*, i8, [256 x i8], [256 x i8], i8, [6 x i8] }>
%"class.std::locale::facet.base" = type <{ i32 (...)**, i32 }>
%struct.__locale_struct = type { [13 x %struct.__locale_data*], i16*, i32*, i32*, [13 x i8*] }
%struct.__locale_data = type opaque
%"class.std::num_put" = type { %"class.std::locale::facet.base", [4 x i8] }
%"class.std::num_get" = type { %"class.std::locale::facet.base", [4 x i8] }

@_ZStL8__ioinit = internal global %"class.std::ios_base::Init" zeroinitializer, align 1
@__dso_handle = external hidden global i8
@__const.main.Month1 = private unnamed_addr constant [13 x i32] [i32 0, i32 31, i32 29, i32 31, i32 30, i32 31, i32 30, i32 31, i32 31, i32 30, i32 31, i32 30, i32 31], align 16
@__const.main.Month2 = private unnamed_addr constant [13 x i32] [i32 0, i32 31, i32 28, i32 31, i32 30, i32 31, i32 30, i32 31, i32 31, i32 30, i32 31, i32 30, i32 31], align 16
@_ZSt3cin = external global %"class.std::basic_istream", align 8
@_ZSt4cout = external global %"class.std::basic_ostream", align 8
@llvm.global_ctors = appending global [1 x { i32, void ()*, i8* }] [{ i32, void ()*, i8* } { i32 65535, void ()* @_GLOBAL__sub_I_977.cpp, i8* null }]

declare void @_ZNSt8ios_base4InitC1Ev(%"class.std::ios_base::Init"* nonnull align 1 dereferenceable(1)) unnamed_addr #0

; Function Attrs: nounwind
declare void @_ZNSt8ios_base4InitD1Ev(%"class.std::ios_base::Init"* nonnull align 1 dereferenceable(1)) unnamed_addr #1

; Function Attrs: nofree nounwind
declare i32 @__cxa_atexit(void (i8*)*, i8*, i8*) local_unnamed_addr #2

; Function Attrs: mustprogress norecurse sspstrong uwtable
define dso_local i32 @main() local_unnamed_addr #3 {
  %1 = alloca i32, align 4
  %2 = alloca i32, align 4
  %3 = alloca i32, align 4
  %4 = bitcast i32* %1 to i8*
  call void @llvm.lifetime.start.p0i8(i64 4, i8* nonnull %4) #8
  %5 = bitcast i32* %2 to i8*
  call void @llvm.lifetime.start.p0i8(i64 4, i8* nonnull %5) #8
  %6 = bitcast i32* %3 to i8*
  call void @llvm.lifetime.start.p0i8(i64 4, i8* nonnull %6) #8
  %7 = call nonnull align 8 dereferenceable(16) %"class.std::basic_istream"* @_ZNSirsERi(%"class.std::basic_istream"* nonnull align 8 dereferenceable(16) @_ZSt3cin, i32* nonnull align 4 dereferenceable(4) %1)
  %8 = call nonnull align 8 dereferenceable(16) %"class.std::basic_istream"* @_ZNSirsERi(%"class.std::basic_istream"* nonnull align 8 dereferenceable(16) %7, i32* nonnull align 4 dereferenceable(4) %2)
  %9 = call nonnull align 8 dereferenceable(16) %"class.std::basic_istream"* @_ZNSirsERi(%"class.std::basic_istream"* nonnull align 8 dereferenceable(16) %8, i32* nonnull align 4 dereferenceable(4) %3)
  %10 = load i32, i32* %1, align 4, !tbaa !5
  %11 = and i32 %10, 3
  %12 = icmp eq i32 %11, 0
  %13 = srem i32 %10, 100
  %14 = icmp ne i32 %13, 0
  %15 = and i1 %12, %14
  %16 = srem i32 %10, 400
  %17 = icmp eq i32 %16, 0
  %18 = select i1 %15, i1 true, i1 %17
  %19 = load i32, i32* %2, align 4, !tbaa !5
  %20 = icmp sgt i32 %19, 1
  br i1 %18, label %89, label %21

21:                                               ; preds = %0
  br i1 %20, label %22, label %177

22:                                               ; preds = %21
  %23 = zext i32 %19 to i64
  %24 = add nsw i64 %23, -1
  %25 = icmp ult i64 %24, 8
  br i1 %25, label %86, label %26

26:                                               ; preds = %22
  %27 = and i64 %24, -8
  %28 = or i64 %27, 1
  %29 = add nsw i64 %27, -8
  %30 = lshr exact i64 %29, 3
  %31 = add nuw nsw i64 %30, 1
  %32 = and i64 %31, 1
  %33 = icmp eq i64 %29, 0
  br i1 %33, label %64, label %34

34:                                               ; preds = %26
  %35 = and i64 %31, 4611686018427387902
  br label %36

36:                                               ; preds = %36, %34
  %37 = phi i64 [ 0, %34 ], [ %59, %36 ]
  %38 = phi <4 x i32> [ zeroinitializer, %34 ], [ %57, %36 ]
  %39 = phi <4 x i32> [ zeroinitializer, %34 ], [ %58, %36 ]
  %40 = phi i64 [ %35, %34 ], [ %60, %36 ]
  %41 = or i64 %37, 1
  %42 = getelementptr inbounds [13 x i32], [13 x i32]* @__const.main.Month2, i64 0, i64 %41
  %43 = bitcast i32* %42 to <4 x i32>*
  %44 = load <4 x i32>, <4 x i32>* %43, align 4, !tbaa !5
  %45 = getelementptr inbounds i32, i32* %42, i64 4
  %46 = bitcast i32* %45 to <4 x i32>*
  %47 = load <4 x i32>, <4 x i32>* %46, align 4, !tbaa !5
  %48 = add <4 x i32> %44, %38
  %49 = add <4 x i32> %47, %39
  %50 = or i64 %37, 9
  %51 = getelementptr inbounds [13 x i32], [13 x i32]* @__const.main.Month2, i64 0, i64 %50
  %52 = bitcast i32* %51 to <4 x i32>*
  %53 = load <4 x i32>, <4 x i32>* %52, align 4, !tbaa !5
  %54 = getelementptr inbounds i32, i32* %51, i64 4
  %55 = bitcast i32* %54 to <4 x i32>*
  %56 = load <4 x i32>, <4 x i32>* %55, align 4, !tbaa !5
  %57 = add <4 x i32> %53, %48
  %58 = add <4 x i32> %56, %49
  %59 = add nuw i64 %37, 16
  %60 = add i64 %40, -2
  %61 = icmp eq i64 %60, 0
  br i1 %61, label %62, label %36, !llvm.loop !9

62:                                               ; preds = %36
  %63 = or i64 %59, 1
  br label %64

64:                                               ; preds = %62, %26
  %65 = phi <4 x i32> [ undef, %26 ], [ %57, %62 ]
  %66 = phi <4 x i32> [ undef, %26 ], [ %58, %62 ]
  %67 = phi i64 [ 1, %26 ], [ %63, %62 ]
  %68 = phi <4 x i32> [ zeroinitializer, %26 ], [ %57, %62 ]
  %69 = phi <4 x i32> [ zeroinitializer, %26 ], [ %58, %62 ]
  %70 = icmp eq i64 %32, 0
  br i1 %70, label %80, label %71

71:                                               ; preds = %64
  %72 = getelementptr inbounds [13 x i32], [13 x i32]* @__const.main.Month2, i64 0, i64 %67
  %73 = getelementptr inbounds i32, i32* %72, i64 4
  %74 = bitcast i32* %73 to <4 x i32>*
  %75 = load <4 x i32>, <4 x i32>* %74, align 4, !tbaa !5
  %76 = add <4 x i32> %75, %69
  %77 = bitcast i32* %72 to <4 x i32>*
  %78 = load <4 x i32>, <4 x i32>* %77, align 4, !tbaa !5
  %79 = add <4 x i32> %78, %68
  br label %80

80:                                               ; preds = %64, %71
  %81 = phi <4 x i32> [ %65, %64 ], [ %79, %71 ]
  %82 = phi <4 x i32> [ %66, %64 ], [ %76, %71 ]
  %83 = add <4 x i32> %82, %81
  %84 = call i32 @llvm.vector.reduce.add.v4i32(<4 x i32> %83)
  %85 = icmp eq i64 %24, %27
  br i1 %85, label %177, label %86

86:                                               ; preds = %22, %80
  %87 = phi i64 [ 1, %22 ], [ %28, %80 ]
  %88 = phi i32 [ 0, %22 ], [ %84, %80 ]
  br label %169

89:                                               ; preds = %0
  br i1 %20, label %90, label %165

90:                                               ; preds = %89
  %91 = zext i32 %19 to i64
  %92 = add nsw i64 %91, -1
  %93 = icmp ult i64 %92, 8
  br i1 %93, label %154, label %94

94:                                               ; preds = %90
  %95 = and i64 %92, -8
  %96 = or i64 %95, 1
  %97 = add nsw i64 %95, -8
  %98 = lshr exact i64 %97, 3
  %99 = add nuw nsw i64 %98, 1
  %100 = and i64 %99, 1
  %101 = icmp eq i64 %97, 0
  br i1 %101, label %132, label %102

102:                                              ; preds = %94
  %103 = and i64 %99, 4611686018427387902
  br label %104

104:                                              ; preds = %104, %102
  %105 = phi i64 [ 0, %102 ], [ %127, %104 ]
  %106 = phi <4 x i32> [ zeroinitializer, %102 ], [ %125, %104 ]
  %107 = phi <4 x i32> [ zeroinitializer, %102 ], [ %126, %104 ]
  %108 = phi i64 [ %103, %102 ], [ %128, %104 ]
  %109 = or i64 %105, 1
  %110 = getelementptr inbounds [13 x i32], [13 x i32]* @__const.main.Month1, i64 0, i64 %109
  %111 = bitcast i32* %110 to <4 x i32>*
  %112 = load <4 x i32>, <4 x i32>* %111, align 4, !tbaa !5
  %113 = getelementptr inbounds i32, i32* %110, i64 4
  %114 = bitcast i32* %113 to <4 x i32>*
  %115 = load <4 x i32>, <4 x i32>* %114, align 4, !tbaa !5
  %116 = add <4 x i32> %112, %106
  %117 = add <4 x i32> %115, %107
  %118 = or i64 %105, 9
  %119 = getelementptr inbounds [13 x i32], [13 x i32]* @__const.main.Month1, i64 0, i64 %118
  %120 = bitcast i32* %119 to <4 x i32>*
  %121 = load <4 x i32>, <4 x i32>* %120, align 4, !tbaa !5
  %122 = getelementptr inbounds i32, i32* %119, i64 4
  %123 = bitcast i32* %122 to <4 x i32>*
  %124 = load <4 x i32>, <4 x i32>* %123, align 4, !tbaa !5
  %125 = add <4 x i32> %121, %116
  %126 = add <4 x i32> %124, %117
  %127 = add nuw i64 %105, 16
  %128 = add i64 %108, -2
  %129 = icmp eq i64 %128, 0
  br i1 %129, label %130, label %104, !llvm.loop !12

130:                                              ; preds = %104
  %131 = or i64 %127, 1
  br label %132

132:                                              ; preds = %130, %94
  %133 = phi <4 x i32> [ undef, %94 ], [ %125, %130 ]
  %134 = phi <4 x i32> [ undef, %94 ], [ %126, %130 ]
  %135 = phi i64 [ 1, %94 ], [ %131, %130 ]
  %136 = phi <4 x i32> [ zeroinitializer, %94 ], [ %125, %130 ]
  %137 = phi <4 x i32> [ zeroinitializer, %94 ], [ %126, %130 ]
  %138 = icmp eq i64 %100, 0
  br i1 %138, label %148, label %139

139:                                              ; preds = %132
  %140 = getelementptr inbounds [13 x i32], [13 x i32]* @__const.main.Month1, i64 0, i64 %135
  %141 = getelementptr inbounds i32, i32* %140, i64 4
  %142 = bitcast i32* %141 to <4 x i32>*
  %143 = load <4 x i32>, <4 x i32>* %142, align 4, !tbaa !5
  %144 = add <4 x i32> %143, %137
  %145 = bitcast i32* %140 to <4 x i32>*
  %146 = load <4 x i32>, <4 x i32>* %145, align 4, !tbaa !5
  %147 = add <4 x i32> %146, %136
  br label %148

148:                                              ; preds = %132, %139
  %149 = phi <4 x i32> [ %133, %132 ], [ %147, %139 ]
  %150 = phi <4 x i32> [ %134, %132 ], [ %144, %139 ]
  %151 = add <4 x i32> %150, %149
  %152 = call i32 @llvm.vector.reduce.add.v4i32(<4 x i32> %151)
  %153 = icmp eq i64 %92, %95
  br i1 %153, label %165, label %154

154:                                              ; preds = %90, %148
  %155 = phi i64 [ 1, %90 ], [ %96, %148 ]
  %156 = phi i32 [ 0, %90 ], [ %152, %148 ]
  br label %157

157:                                              ; preds = %154, %157
  %158 = phi i64 [ %163, %157 ], [ %155, %154 ]
  %159 = phi i32 [ %162, %157 ], [ %156, %154 ]
  %160 = getelementptr inbounds [13 x i32], [13 x i32]* @__const.main.Month1, i64 0, i64 %158
  %161 = load i32, i32* %160, align 4, !tbaa !5
  %162 = add nsw i32 %161, %159
  %163 = add nuw nsw i64 %158, 1
  %164 = icmp eq i64 %163, %91
  br i1 %164, label %165, label %157, !llvm.loop !13

165:                                              ; preds = %157, %148, %89
  %166 = phi i32 [ 0, %89 ], [ %152, %148 ], [ %162, %157 ]
  %167 = load i32, i32* %3, align 4, !tbaa !5
  %168 = add nsw i32 %167, %166
  br label %181

169:                                              ; preds = %86, %169
  %170 = phi i64 [ %175, %169 ], [ %87, %86 ]
  %171 = phi i32 [ %174, %169 ], [ %88, %86 ]
  %172 = getelementptr inbounds [13 x i32], [13 x i32]* @__const.main.Month2, i64 0, i64 %170
  %173 = load i32, i32* %172, align 4, !tbaa !5
  %174 = add nsw i32 %173, %171
  %175 = add nuw nsw i64 %170, 1
  %176 = icmp eq i64 %175, %23
  br i1 %176, label %177, label %169, !llvm.loop !15

177:                                              ; preds = %169, %80, %21
  %178 = phi i32 [ 0, %21 ], [ %84, %80 ], [ %174, %169 ]
  %179 = load i32, i32* %3, align 4, !tbaa !5
  %180 = add nsw i32 %179, %178
  br label %181

181:                                              ; preds = %177, %165
  %182 = phi i32 [ %180, %177 ], [ %168, %165 ]
  %183 = call nonnull align 8 dereferenceable(8) %"class.std::basic_ostream"* @_ZNSolsEi(%"class.std::basic_ostream"* nonnull align 8 dereferenceable(8) @_ZSt4cout, i32 %182)
  call void @llvm.lifetime.end.p0i8(i64 4, i8* nonnull %6) #8
  call void @llvm.lifetime.end.p0i8(i64 4, i8* nonnull %5) #8
  call void @llvm.lifetime.end.p0i8(i64 4, i8* nonnull %4) #8
  ret i32 0
}

; Function Attrs: argmemonly mustprogress nofree nosync nounwind willreturn
declare void @llvm.lifetime.start.p0i8(i64 immarg, i8* nocapture) #4

declare nonnull align 8 dereferenceable(16) %"class.std::basic_istream"* @_ZNSirsERi(%"class.std::basic_istream"* nonnull align 8 dereferenceable(16), i32* nonnull align 4 dereferenceable(4)) local_unnamed_addr #0

; Function Attrs: mustprogress nofree norecurse nosync nounwind readnone sspstrong uwtable willreturn
define dso_local i32 @_Z7panduani(i32 %0) local_unnamed_addr #5 {
  %2 = and i32 %0, 3
  %3 = icmp eq i32 %2, 0
  %4 = srem i32 %0, 100
  %5 = icmp ne i32 %4, 0
  %6 = and i1 %3, %5
  %7 = srem i32 %0, 400
  %8 = icmp eq i32 %7, 0
  %9 = select i1 %6, i1 true, i1 %8
  %10 = zext i1 %9 to i32
  ret i32 %10
}

declare nonnull align 8 dereferenceable(8) %"class.std::basic_ostream"* @_ZNSolsEi(%"class.std::basic_ostream"* nonnull align 8 dereferenceable(8), i32) local_unnamed_addr #0

; Function Attrs: argmemonly mustprogress nofree nosync nounwind willreturn
declare void @llvm.lifetime.end.p0i8(i64 immarg, i8* nocapture) #4

; Function Attrs: sspstrong uwtable
define internal void @_GLOBAL__sub_I_977.cpp() #6 section ".text.startup" {
  tail call void @_ZNSt8ios_base4InitC1Ev(%"class.std::ios_base::Init"* nonnull align 1 dereferenceable(1) @_ZStL8__ioinit)
  %1 = tail call i32 @__cxa_atexit(void (i8*)* bitcast (void (%"class.std::ios_base::Init"*)* @_ZNSt8ios_base4InitD1Ev to void (i8*)*), i8* getelementptr inbounds (%"class.std::ios_base::Init", %"class.std::ios_base::Init"* @_ZStL8__ioinit, i64 0, i32 0), i8* nonnull @__dso_handle) #8
  ret void
}

; Function Attrs: nofree nosync nounwind readnone willreturn
declare i32 @llvm.vector.reduce.add.v4i32(<4 x i32>) #7


!llvm.module.flags = !{!0, !1, !2, !3}
!llvm.ident = !{!4}

!0 = !{i32 1, !"wchar_size", i32 4}
!1 = !{i32 7, !"PIC Level", i32 2}
!2 = !{i32 7, !"PIE Level", i32 2}
!3 = !{i32 7, !"uwtable", i32 1}
!4 = !{!"clang version 13.0.0"}
!5 = !{!6, !6, i64 0}
!6 = !{!"int", !7, i64 0}
!7 = !{!"omnipotent char", !8, i64 0}
!8 = !{!"Simple C++ TBAA"}
!9 = distinct !{!9, !10, !11}
!10 = !{!"llvm.loop.mustprogress"}
!11 = !{!"llvm.loop.isvectorized", i32 1}
!12 = distinct !{!12, !10, !11}
!13 = distinct !{!13, !10, !14, !11}
!14 = !{!"llvm.loop.unroll.runtime.disable"}
!15 = distinct !{!15, !10, !14, !11}
